target datalayout = "e-m:e-p270:32:32-p271:32:32-p272:64:64-i64:64-i128:128-f80:128-n8:16:32:64-S128"
target triple = "x86_64-pc-linux-gnu"

%struct.crypto_ex_data_st = type { ptr, ptr }
%struct.x509_store_ctx_st = type { ptr, ptr, ptr, ptr, ptr, ptr, ptr, ptr, ptr, ptr, ptr, ptr, ptr, ptr, ptr, ptr, ptr, ptr, i32, i32, ptr, ptr, i32, i32, i32, ptr, ptr, ptr, i32, i32, ptr, %struct.crypto_ex_data_st, ptr, i32, ptr, ptr, ptr }
%struct.X509_VERIFY_PARAM_st = type { ptr, i64, i32, i64, i32, i32, i32, i32, ptr, ptr, i32, ptr, ptr, i64, ptr, i64 }
%struct.x509_purpose_st = type { i32, i32, i32, ptr, ptr, ptr, ptr }

@.str = private unnamed_addr constant [34 x i8] c"../openssl/crypto/x509/x509_vfy.c\00", align 1
@__func__.X509_STORE_CTX_purpose_inherit = private unnamed_addr constant [31 x i8] c"X509_STORE_CTX_purpose_inherit\00", align 1

; Function Attrs: nounwind uwtable
define i32 @X509_STORE_CTX_purpose_inherit(ptr noundef %0, i32 noundef %1, i32 noundef %2, i32 noundef %3) #0 {
  %5 = alloca i32, align 4
  %6 = alloca ptr, align 8
  %7 = alloca i32, align 4
  %8 = alloca i32, align 4
  %9 = alloca i32, align 4
  %10 = alloca i32, align 4
  %11 = alloca ptr, align 8
  %12 = alloca i32, align 4
  store ptr %0, ptr %6, align 8, !tbaa !40
  store i32 %1, ptr %7, align 4, !tbaa !8
  store i32 %2, ptr %8, align 4, !tbaa !8
  store i32 %3, ptr %9, align 4, !tbaa !8
  call void @llvm.lifetime.start.p0(i64 4, ptr %10) #8
  %13 = load i32, ptr %8, align 4, !tbaa !8
  %14 = icmp eq i32 %13, 0
  br i1 %14, label %15, label %17

15:                                               ; preds = %4
  %16 = load i32, ptr %7, align 4, !tbaa !8
  store i32 %16, ptr %8, align 4, !tbaa !8
  br label %23

17:                                               ; preds = %4
  %18 = load i32, ptr %7, align 4, !tbaa !8
  %19 = icmp eq i32 %18, 0
  br i1 %19, label %20, label %22

20:                                               ; preds = %17
  %21 = load i32, ptr %8, align 4, !tbaa !8
  store i32 %21, ptr %7, align 4, !tbaa !8
  br label %22

22:                                               ; preds = %20, %17
  br label %23

23:                                               ; preds = %22, %15
  %24 = load i32, ptr %8, align 4, !tbaa !8
  %25 = icmp ne i32 %24, 0
  br i1 %25, label %26, label %59

26:                                               ; preds = %23
  call void @llvm.lifetime.start.p0(i64 8, ptr %11) #8
  %27 = load i32, ptr %8, align 4, !tbaa !8
  %28 = call i32 @X509_PURPOSE_get_by_id(i32 noundef %27)
  store i32 %28, ptr %10, align 4, !tbaa !8
  %29 = load i32, ptr %10, align 4, !tbaa !8
  %30 = icmp eq i32 %29, -1
  br i1 %30, label %31, label %32

31:                                               ; preds = %26
  call void @ERR_new()
  call void @ERR_set_debug(ptr noundef @.str, i32 noundef 2419, ptr noundef @__func__.X509_STORE_CTX_purpose_inherit)
  call void (i32, i32, ptr, ...) @ERR_set_error(i32 noundef 11, i32 noundef 121, ptr noundef null)
  store i32 0, ptr %5, align 4
  store i32 1, ptr %12, align 4
  br label %56

32:                                               ; preds = %26
  %33 = load i32, ptr %10, align 4, !tbaa !8
  %34 = call ptr @X509_PURPOSE_get0(i32 noundef %33)
  store ptr %34, ptr %11, align 8, !tbaa !120
  %35 = load ptr, ptr %11, align 8, !tbaa !120
  %36 = getelementptr inbounds nuw %struct.x509_purpose_st, ptr %35, i32 0, i32 1
  %37 = load i32, ptr %36, align 4, !tbaa !122
  %38 = icmp eq i32 %37, 0
  br i1 %38, label %39, label %48

39:                                               ; preds = %32
  %40 = load i32, ptr %7, align 4, !tbaa !8
  %41 = call i32 @X509_PURPOSE_get_by_id(i32 noundef %40)
  store i32 %41, ptr %10, align 4, !tbaa !8
  %42 = load i32, ptr %10, align 4, !tbaa !8
  %43 = icmp eq i32 %42, -1
  br i1 %43, label %44, label %45

44:                                               ; preds = %39
  call void @ERR_new()
  call void @ERR_set_debug(ptr noundef @.str, i32 noundef 2426, ptr noundef @__func__.X509_STORE_CTX_purpose_inherit)
  call void (i32, i32, ptr, ...) @ERR_set_error(i32 noundef 11, i32 noundef 121, ptr noundef null)
  store i32 0, ptr %5, align 4
  store i32 1, ptr %12, align 4
  br label %56

45:                                               ; preds = %39
  %46 = load i32, ptr %10, align 4, !tbaa !8
  %47 = call ptr @X509_PURPOSE_get0(i32 noundef %46)
  store ptr %47, ptr %11, align 8, !tbaa !120
  br label %48

48:                                               ; preds = %45, %32
  %49 = load i32, ptr %9, align 4, !tbaa !8
  %50 = icmp eq i32 %49, 0
  br i1 %50, label %51, label %55

51:                                               ; preds = %48
  %52 = load ptr, ptr %11, align 8, !tbaa !120
  %53 = getelementptr inbounds nuw %struct.x509_purpose_st, ptr %52, i32 0, i32 1
  %54 = load i32, ptr %53, align 4, !tbaa !122
  store i32 %54, ptr %9, align 4, !tbaa !8
  br label %55

55:                                               ; preds = %51, %48
  store i32 0, ptr %12, align 4
  br label %56

56:                                               ; preds = %55, %44, %31
  call void @llvm.lifetime.end.p0(i64 8, ptr %11) #8
  %57 = load i32, ptr %12, align 4
  switch i32 %57, label %102 [
    i32 0, label %58
  ]

58:                                               ; preds = %56
  br label %59

59:                                               ; preds = %58, %23
  %60 = load i32, ptr %9, align 4, !tbaa !8
  %61 = icmp ne i32 %60, 0
  br i1 %61, label %62, label %69

62:                                               ; preds = %59
  %63 = load i32, ptr %9, align 4, !tbaa !8
  %64 = call i32 @X509_TRUST_get_by_id(i32 noundef %63)
  store i32 %64, ptr %10, align 4, !tbaa !8
  %65 = load i32, ptr %10, align 4, !tbaa !8
  %66 = icmp eq i32 %65, -1
  br i1 %66, label %67, label %68

67:                                               ; preds = %62
  call void @ERR_new()
  call void @ERR_set_debug(ptr noundef @.str, i32 noundef 2438, ptr noundef @__func__.X509_STORE_CTX_purpose_inherit)
  call void (i32, i32, ptr, ...) @ERR_set_error(i32 noundef 11, i32 noundef 120, ptr noundef null)
  store i32 0, ptr %5, align 4
  store i32 1, ptr %12, align 4
  br label %102

68:                                               ; preds = %62
  br label %69

69:                                               ; preds = %68, %59
  %70 = load ptr, ptr %6, align 8, !tbaa !40
  %71 = getelementptr inbounds nuw %struct.x509_store_ctx_st, ptr %70, i32 0, i32 4
  %72 = load ptr, ptr %71, align 8, !tbaa !72
  %73 = getelementptr inbounds nuw %struct.X509_VERIFY_PARAM_st, ptr %72, i32 0, i32 4
  %74 = load i32, ptr %73, align 8, !tbaa !124
  %75 = icmp eq i32 %74, 0
  br i1 %75, label %76, label %85

76:                                               ; preds = %69
  %77 = load i32, ptr %8, align 4, !tbaa !8
  %78 = icmp ne i32 %77, 0
  br i1 %78, label %79, label %85

79:                                               ; preds = %76
  %80 = load i32, ptr %8, align 4, !tbaa !8
  %81 = load ptr, ptr %6, align 8, !tbaa !40
  %82 = getelementptr inbounds nuw %struct.x509_store_ctx_st, ptr %81, i32 0, i32 4
  %83 = load ptr, ptr %82, align 8, !tbaa !72
  %84 = getelementptr inbounds nuw %struct.X509_VERIFY_PARAM_st, ptr %83, i32 0, i32 4
  store i32 %80, ptr %84, align 8, !tbaa !124
  br label %85

85:                                               ; preds = %79, %76, %69
  %86 = load ptr, ptr %6, align 8, !tbaa !40
  %87 = getelementptr inbounds nuw %struct.x509_store_ctx_st, ptr %86, i32 0, i32 4
  %88 = load ptr, ptr %87, align 8, !tbaa !72
  %89 = getelementptr inbounds nuw %struct.X509_VERIFY_PARAM_st, ptr %88, i32 0, i32 5
  %90 = load i32, ptr %89, align 4, !tbaa !125
  %91 = icmp eq i32 %90, 0
  br i1 %91, label %92, label %101

92:                                               ; preds = %85
  %93 = load i32, ptr %9, align 4, !tbaa !8
  %94 = icmp ne i32 %93, 0
  br i1 %94, label %95, label %101

95:                                               ; preds = %92
  %96 = load i32, ptr %9, align 4, !tbaa !8
  %97 = load ptr, ptr %6, align 8, !tbaa !40
  %98 = getelementptr inbounds nuw %struct.x509_store_ctx_st, ptr %97, i32 0, i32 4
  %99 = load ptr, ptr %98, align 8, !tbaa !72
  %100 = getelementptr inbounds nuw %struct.X509_VERIFY_PARAM_st, ptr %99, i32 0, i32 5
  store i32 %96, ptr %100, align 4, !tbaa !125
  br label %101

101:                                              ; preds = %95, %92, %85
  store i32 1, ptr %5, align 4
  store i32 1, ptr %12, align 4
  br label %102

102:                                              ; preds = %101, %67, %56
  call void @llvm.lifetime.end.p0(i64 4, ptr %10) #8
  %103 = load i32, ptr %5, align 4
  ret i32 %103
}