; Function Attrs: nounwind uwtable
define range(i32 0, 2) i32 @X509_STORE_CTX_purpose_inherit(ptr noundef readonly captures(none) %0, i32 noundef %1, i32 noundef %2, i32 noundef %3) local_unnamed_addr #0 {
  %5 = icmp eq i32 %2, 0
  %6 = icmp eq i32 %1, 0
  %spec.select = select i1 %6, i32 %2, i32 %1
  %.032 = select i1 %5, i32 %1, i32 %spec.select
  %.031 = select i1 %5, i32 %1, i32 %2
  %7 = icmp ne i32 %.031, 0
  br i1 %7, label %8, label %.thread

8:                                                ; preds = %4
  %9 = tail call i32 @X509_PURPOSE_get_by_id(i32 noundef %.031) #10
  %10 = icmp eq i32 %9, -1
  br i1 %10, label %11, label %12

11:                                               ; preds = %8
  tail call void @ERR_new() #10
  tail call void @ERR_set_debug(ptr noundef nonnull @.str, i32 noundef 2419, ptr noundef nonnull @__func__.X509_STORE_CTX_purpose_inherit) #10
  tail call void (i32, i32, ptr, ...) @ERR_set_error(i32 noundef 11, i32 noundef 121, ptr noundef null) #10
  br label %44

12:                                               ; preds = %8
  %13 = tail call ptr @X509_PURPOSE_get0(i32 noundef %9) #10
  %14 = getelementptr inbounds nuw i8, ptr %13, i64 4
  %15 = load i32, ptr %14, align 4, !tbaa !123
  %16 = icmp eq i32 %15, 0
  br i1 %16, label %17, label %23

17:                                               ; preds = %12
  %18 = tail call i32 @X509_PURPOSE_get_by_id(i32 noundef %.032) #10
  %19 = icmp eq i32 %18, -1
  br i1 %19, label %20, label %21

20:                                               ; preds = %17
  tail call void @ERR_new() #10
  tail call void @ERR_set_debug(ptr noundef nonnull @.str, i32 noundef 2426, ptr noundef nonnull @__func__.X509_STORE_CTX_purpose_inherit) #10
  tail call void (i32, i32, ptr, ...) @ERR_set_error(i32 noundef 11, i32 noundef 121, ptr noundef null) #10
  br label %44

21:                                               ; preds = %17
  %22 = tail call ptr @X509_PURPOSE_get0(i32 noundef %18) #10
  br label %23

23:                                               ; preds = %21, %12
  %.029 = phi ptr [ %22, %21 ], [ %13, %12 ]
  %24 = icmp eq i32 %3, 0
  br i1 %24, label %25, label %.thread.thread

25:                                               ; preds = %23
  %26 = getelementptr inbounds nuw i8, ptr %.029, i64 4
  %27 = load i32, ptr %26, align 4, !tbaa !123
  br label %.thread

.thread:                                          ; preds = %25, %4
  %.030 = phi i32 [ %3, %4 ], [ %27, %25 ]
  %.not = icmp eq i32 %.030, 0
  br i1 %.not, label %31, label %.thread.thread

.thread.thread:                                   ; preds = %23, %.thread
  %.03043 = phi i32 [ %.030, %.thread ], [ %3, %23 ]
  %28 = tail call i32 @X509_TRUST_get_by_id(i32 noundef %.03043) #10
  %29 = icmp eq i32 %28, -1
  br i1 %29, label %30, label %31

30:                                               ; preds = %.thread.thread
  tail call void @ERR_new() #10
  tail call void @ERR_set_debug(ptr noundef nonnull @.str, i32 noundef 2438, ptr noundef nonnull @__func__.X509_STORE_CTX_purpose_inherit) #10
  tail call void (i32, i32, ptr, ...) @ERR_set_error(i32 noundef 11, i32 noundef 120, ptr noundef null) #10
  br label %44

31:                                               ; preds = %.thread.thread, %.thread
  %32 = phi i1 [ true, %.thread.thread ], [ false, %.thread ]
  %.03044 = phi i32 [ %.03043, %.thread.thread ], [ 0, %.thread ]
  %33 = getelementptr inbounds nuw i8, ptr %0, i64 32
  %34 = load ptr, ptr %33, align 8, !tbaa !49
  %35 = getelementptr inbounds nuw i8, ptr %34, i64 32
  %36 = load i32, ptr %35, align 8, !tbaa !125
  %37 = icmp eq i32 %36, 0
  %or.cond = and i1 %7, %37
  br i1 %or.cond, label %38, label %39

38:                                               ; preds = %31
  store i32 %.031, ptr %35, align 8, !tbaa !125
  br label %39

39:                                               ; preds = %38, %31
  %40 = getelementptr inbounds nuw i8, ptr %34, i64 36
  %41 = load i32, ptr %40, align 4, !tbaa !126
  %42 = icmp eq i32 %41, 0
  %or.cond3 = and i1 %32, %42
  br i1 %or.cond3, label %43, label %44

43:                                               ; preds = %39
  store i32 %.03044, ptr %40, align 4, !tbaa !126
  br label %44

44:                                               ; preds = %11, %20, %39, %43, %30
  %.134 = phi i32 [ 0, %30 ], [ 1, %43 ], [ 1, %39 ], [ 0, %20 ], [ 0, %11 ]
  ret i32 %.134
}